; Function Attrs: nounwind uwtable
define void @Fra_SmlResimulate(ptr noundef %0) local_unnamed_addr #6 {
  %2 = alloca %struct.timespec, align 8
  %3 = alloca %struct.timespec, align 8
  %4 = getelementptr inbounds nuw i8, ptr %0, i64 56
  %5 = load ptr, ptr %4, align 8, !tbaa !6
  %6 = getelementptr inbounds nuw i8, ptr %0, i64 80
  %7 = load ptr, ptr %6, align 8, !tbaa !36
  tail call void @Fra_SmlAssignDist1(ptr noundef %5, ptr noundef %7)
  %8 = load ptr, ptr %4, align 8, !tbaa !6
  tail call void @Fra_SmlSimulateOne(ptr noundef %8)
  %9 = load ptr, ptr %0, align 8, !tbaa !121
  %10 = getelementptr inbounds nuw i8, ptr %9, i64 48
  %11 = load i32, ptr %10, align 8, !tbaa !122
  %.not = icmp eq i32 %11, 0
  br i1 %.not, label %Fra_SmlCheckOutput.exit.thread, label %12

12:                                               ; preds = %1
  %13 = getelementptr inbounds nuw i8, ptr %0, i64 8
  %14 = load ptr, ptr %13, align 8, !tbaa !38
  %15 = getelementptr i8, ptr %14, i64 24
  %.val12.i = load ptr, ptr %15, align 8, !tbaa !80
  %16 = getelementptr i8, ptr %.val12.i, i64 8
  %.val12.val.i = load ptr, ptr %16, align 8, !tbaa !51
  %17 = getelementptr i8, ptr %.val12.i, i64 4
  %.val.i = load i32, ptr %17, align 4, !tbaa !46
  %18 = icmp sgt i32 %.val.i, 0
  br i1 %18, label %.lr.ph.preheader.i, label %Fra_SmlCheckOutput.exit.thread

.lr.ph.preheader.i:                               ; preds = %12
  %wide.trip.count.i = zext nneg i32 %.val.i to i64
  br label %.lr.ph.i

.lr.ph.i:                                         ; preds = %.loopexit.i, %.lr.ph.preheader.i
  %indvars.iv.i = phi i64 [ 0, %.lr.ph.preheader.i ], [ %indvars.iv.next.i, %.loopexit.i ]
  %19 = getelementptr inbounds nuw ptr, ptr %.val12.val.i, i64 %indvars.iv.i
  %20 = load ptr, ptr %19, align 8, !tbaa !65
  %21 = getelementptr i8, ptr %20, i64 8
  %.val11.i = load ptr, ptr %21, align 8, !tbaa !75
  %22 = ptrtoint ptr %.val11.i to i64
  %23 = and i64 %22, -2
  %24 = inttoptr i64 %23 to ptr
  %25 = getelementptr inbounds nuw i8, ptr %24, i64 40
  %26 = load ptr, ptr %25, align 8, !tbaa !3
  %27 = getelementptr inbounds nuw i8, ptr %26, i64 56
  %28 = load ptr, ptr %27, align 8, !tbaa !6
  %29 = getelementptr inbounds nuw i8, ptr %24, i64 36
  %30 = load i32, ptr %29, align 4, !tbaa !22
  %31 = getelementptr inbounds nuw i8, ptr %28, i64 40
  %32 = getelementptr inbounds nuw i8, ptr %28, i64 20
  %33 = load i32, ptr %32, align 4, !tbaa !25
  %34 = mul nsw i32 %33, %30
  %35 = sext i32 %34 to i64
  %36 = getelementptr inbounds i32, ptr %31, i64 %35
  %37 = getelementptr inbounds nuw i8, ptr %28, i64 24
  %38 = load i32, ptr %37, align 8, !tbaa !27
  %39 = icmp slt i32 %38, %33
  br i1 %39, label %.lr.ph.preheader.i.i, label %.loopexit.i

.lr.ph.preheader.i.i:                             ; preds = %.lr.ph.i
  %40 = sext i32 %38 to i64
  br label %.lr.ph.i.i

41:                                               ; preds = %.lr.ph.i.i
  %indvars.iv.next.i.i = add nsw i64 %indvars.iv.i.i, 1
  %lftr.wideiv.i.i = trunc i64 %indvars.iv.next.i.i to i32
  %exitcond.not.i.i = icmp eq i32 %33, %lftr.wideiv.i.i
  br i1 %exitcond.not.i.i, label %.loopexit.i, label %.lr.ph.i.i, !llvm.loop !31

.lr.ph.i.i:                                       ; preds = %41, %.lr.ph.preheader.i.i
  %indvars.iv.i.i = phi i64 [ %40, %.lr.ph.preheader.i.i ], [ %indvars.iv.next.i.i, %41 ]
  %42 = getelementptr inbounds i32, ptr %36, i64 %indvars.iv.i.i
  %43 = load i32, ptr %42, align 4, !tbaa !28
  %.not.i.i = icmp eq i32 %43, 0
  br i1 %.not.i.i, label %41, label %Fra_SmlCheckOutput.exit

.loopexit.i:                                      ; preds = %41, %.lr.ph.i
  %indvars.iv.next.i = add nuw nsw i64 %indvars.iv.i, 1
  %exitcond.not.i = icmp eq i64 %indvars.iv.next.i, %wide.trip.count.i
  br i1 %exitcond.not.i, label %Fra_SmlCheckOutput.exit.thread, label %.lr.ph.i, !llvm.loop !81

Fra_SmlCheckOutput.exit:                          ; preds = %.lr.ph.i.i
  tail call void @Fra_SmlCheckOutputSavePattern(ptr noundef nonnull readonly %0, ptr noundef %20)
  br label %88

Fra_SmlCheckOutput.exit.thread:                   ; preds = %.loopexit.i, %12, %1
  call void @llvm.lifetime.start.p0(i64 16, ptr nonnull %3) #22
  %44 = call i32 @clock_gettime(i32 noundef 1, ptr noundef nonnull %3) #22
  %45 = icmp slt i32 %44, 0
  br i1 %45, label %Abc_Clock.exit, label %46

46:                                               ; preds = %Fra_SmlCheckOutput.exit.thread
  %47 = load i64, ptr %3, align 8, !tbaa !110
  %.neg29 = mul i64 %47, -1000000
  %48 = getelementptr inbounds nuw i8, ptr %3, i64 8
  %49 = load i64, ptr %48, align 8, !tbaa !112
  %.neg = sdiv i64 %49, -1000
  %.neg30 = add i64 %.neg, %.neg29
  br label %Abc_Clock.exit

Abc_Clock.exit:                                   ; preds = %Fra_SmlCheckOutput.exit.thread, %46
  %.0.i.neg = phi i64 [ %.neg30, %46 ], [ 1, %Fra_SmlCheckOutput.exit.thread ]
  call void @llvm.lifetime.end.p0(i64 16, ptr nonnull %3) #22
  %50 = getelementptr inbounds nuw i8, ptr %0, i64 48
  %51 = load ptr, ptr %50, align 8, !tbaa !124
  %52 = call i32 @Fra_ClassesRefine(ptr noundef %51) #22
  %53 = load ptr, ptr %50, align 8, !tbaa !124
  %54 = call i32 @Fra_ClassesRefine1(ptr noundef %53, i32 noundef 1, ptr noundef null) #22
  %55 = add nsw i32 %54, %52
  %56 = load ptr, ptr %50, align 8, !tbaa !124
  %57 = getelementptr inbounds nuw i8, ptr %56, i64 80
  %58 = load ptr, ptr %57, align 8, !tbaa !125
  %.not23 = icmp eq ptr %58, null
  br i1 %.not23, label %62, label %59

59:                                               ; preds = %Abc_Clock.exit
  %60 = call i32 @Fra_ImpRefineUsingCex(ptr noundef nonnull %0, ptr noundef nonnull %58) #22
  %61 = add nsw i32 %60, %55
  br label %62

62:                                               ; preds = %59, %Abc_Clock.exit
  %.0 = phi i32 [ %61, %59 ], [ %55, %Abc_Clock.exit ]
  %63 = getelementptr inbounds nuw i8, ptr %0, i64 96
  %64 = load ptr, ptr %63, align 8, !tbaa !127
  %.not24 = icmp eq ptr %64, null
  br i1 %.not24, label %68, label %65

65:                                               ; preds = %62
  %66 = call i32 @Fra_OneHotRefineUsingCex(ptr noundef nonnull %0, ptr noundef nonnull %64) #22
  %67 = add nsw i32 %66, %.0
  br label %68

68:                                               ; preds = %65, %62
  %.1 = phi i32 [ %67, %65 ], [ %.0, %62 ]
  call void @llvm.lifetime.start.p0(i64 16, ptr nonnull %2) #22
  %69 = call i32 @clock_gettime(i32 noundef 1, ptr noundef nonnull %2) #22
  %70 = icmp slt i32 %69, 0
  br i1 %70, label %Abc_Clock.exit26, label %71

71:                                               ; preds = %68
  %72 = load i64, ptr %2, align 8, !tbaa !110
  %73 = mul nsw i64 %72, 1000000
  %74 = getelementptr inbounds nuw i8, ptr %2, i64 8
  %75 = load i64, ptr %74, align 8, !tbaa !112
  %76 = sdiv i64 %75, 1000
  %77 = add nsw i64 %76, %73
  br label %Abc_Clock.exit26

Abc_Clock.exit26:                                 ; preds = %68, %71
  %.0.i25 = phi i64 [ %77, %71 ], [ -1, %68 ]
  call void @llvm.lifetime.end.p0(i64 16, ptr nonnull %2) #22
  %78 = add i64 %.0.i25, %.0.i.neg
  %79 = getelementptr inbounds nuw i8, ptr %0, i64 312
  %80 = load i64, ptr %79, align 8, !tbaa !128
  %81 = add nsw i64 %78, %80
  store i64 %81, ptr %79, align 8, !tbaa !128
  %82 = load ptr, ptr %0, align 8, !tbaa !121
  %83 = getelementptr inbounds nuw i8, ptr %82, i64 80
  %84 = load i32, ptr %83, align 8, !tbaa !129
  %85 = icmp eq i32 %84, 0
  %86 = icmp slt i32 %.1, 1
  %or.cond = select i1 %85, i1 %86, i1 false
  br i1 %or.cond, label %87, label %88

87:                                               ; preds = %Abc_Clock.exit26
  %puts = call i32 @puts(ptr nonnull dereferenceable(1) @str)
  br label %88

88:                                               ; preds = %Fra_SmlCheckOutput.exit, %Abc_Clock.exit26, %87
  ret void
}